; Function Attrs: mustprogress uwtable
define double @proj_lp_dist(ptr noundef readonly captures(none) %0, ptr noundef readonly byval(%union.PJ_COORD) align 8 captures(none) %1, ptr noundef readonly byval(%union.PJ_COORD) align 8 captures(none) %2) local_unnamed_addr #0 {
  %4 = alloca double, align 8
  %5 = alloca double, align 8
  %6 = alloca double, align 8
  call void @llvm.lifetime.start.p0(i64 8, ptr nonnull %4) #6
  call void @llvm.lifetime.start.p0(i64 8, ptr nonnull %5) #6
  call void @llvm.lifetime.start.p0(i64 8, ptr nonnull %6) #6
  %7 = getelementptr inbounds nuw i8, ptr %0, i64 80
  %8 = load ptr, ptr %7, align 8, !tbaa !3
  %.not = icmp eq ptr %8, null
  br i1 %.not, label %25, label %9

9:                                                ; preds = %3
  %10 = getelementptr inbounds nuw i8, ptr %1, i64 8
  %11 = load double, ptr %10, align 8, !tbaa !36
  %12 = fmul double %11, 1.800000e+02
  %13 = fdiv double %12, 0x400921FB54442D18
  %14 = load double, ptr %1, align 8, !tbaa !36
  %15 = fmul double %14, 1.800000e+02
  %16 = fdiv double %15, 0x400921FB54442D18
  %17 = getelementptr inbounds nuw i8, ptr %2, i64 8
  %18 = load double, ptr %17, align 8, !tbaa !36
  %19 = fmul double %18, 1.800000e+02
  %20 = fdiv double %19, 0x400921FB54442D18
  %21 = load double, ptr %2, align 8, !tbaa !36
  %22 = fmul double %21, 1.800000e+02
  %23 = fdiv double %22, 0x400921FB54442D18
  call void @geod_inverse(ptr noundef nonnull %8, double noundef %13, double noundef %16, double noundef %20, double noundef %23, ptr noundef nonnull %4, ptr noundef nonnull %5, ptr noundef nonnull %6)
  %24 = load double, ptr %4, align 8, !tbaa !38
  br label %25

25:                                               ; preds = %3, %9
  %.0 = phi double [ %24, %9 ], [ 0x7FF0000000000000, %3 ]
  call void @llvm.lifetime.end.p0(i64 8, ptr nonnull %6) #6
  call void @llvm.lifetime.end.p0(i64 8, ptr nonnull %5) #6
  call void @llvm.lifetime.end.p0(i64 8, ptr nonnull %4) #6
  ret double %.0
}